target datalayout = "e-m:e-p270:32:32-p271:32:32-p272:64:64-i64:64-i128:128-f80:128-n8:16:32:64-S128"
target triple = "x86_64-pc-linux-gnu"

%class.Register = type { i32 }
%class.XMMRegister = type { i32 }
%class.StubCodeGenerator = type { ptr, i8, ptr }
%class.Label = type <{ i32, [4 x i32], i32, ptr, i8, [7 x i8] }>
%class.RelocationHolder = type { [40 x i8] }
%class.Address = type { %class.Register, %class.Register, %class.XMMRegister, i32, i32, i8, [3 x i8], %class.RelocationHolder }
%class.Relocation = type <{ ptr, ptr, i32, [4 x i8] }>

@_ZL4xmm1 = internal constant %class.XMMRegister { i32 1 }, align 4
@_ZL5xmm13 = internal constant %class.XMMRegister { i32 13 }, align 4
@_ZL5noreg = internal constant %class.Register { i32 -1 }, align 4
@_ZL6xnoreg = internal constant %class.XMMRegister { i32 -1 }, align 4
@_ZTV10Relocation = external unnamed_addr constant { [11 x ptr] }, align 8

; Function Attrs: mustprogress nounwind uwtable
define linkonce_odr hidden void @_ZN10RelocationC2EN9relocInfo9relocTypeE(ptr noundef nonnull align 8 dereferenceable(20) %0, i32 noundef %1) unnamed_addr #1 comdat align 2 {
  %3 = alloca ptr, align 8
  %4 = alloca i32, align 4
  store ptr %0, ptr %3, align 8
  store i32 %1, ptr %4, align 4
  %5 = load ptr, ptr %3, align 8
  store ptr getelementptr inbounds inrange(-16, 72) ({ [11 x ptr] }, ptr @_ZTV10Relocation, i32 0, i32 0, i32 2), ptr %5, align 8
  %6 = getelementptr inbounds %class.Relocation, ptr %5, i32 0, i32 1
  store ptr null, ptr %6, align 8
  %7 = getelementptr inbounds %class.Relocation, ptr %5, i32 0, i32 2
  %8 = load i32, ptr %4, align 4
  store i32 %8, ptr %7, align 8
  ret void
}

; Function Attrs: mustprogress nounwind uwtable
define linkonce_odr hidden void @_ZN10RelocationC2Ev(ptr noundef nonnull align 8 dereferenceable(20) %0) unnamed_addr #1 comdat align 2 {
  %2 = alloca ptr, align 8
  store ptr %0, ptr %2, align 8
  %3 = load ptr, ptr %2, align 8
  call void @_ZN10RelocationC2EN9relocInfo9relocTypeE(ptr noundef nonnull align 8 dereferenceable(20) %3, i32 noundef 0)
  ret void
}

; Function Attrs: mustprogress nounwind uwtable
define linkonce_odr hidden void @_ZN16RelocationHolder18emplace_relocationI10RelocationJEEEvDpRKT0_(ptr noundef nonnull align 8 dereferenceable(40) %0) #1 comdat align 2 {
  %2 = alloca ptr, align 8
  %3 = alloca ptr, align 8
  store ptr %0, ptr %2, align 8
  %4 = load ptr, ptr %2, align 8
  %5 = getelementptr inbounds %class.RelocationHolder, ptr %4, i32 0, i32 0
  %6 = getelementptr inbounds [40 x i8], ptr %5, i64 0, i64 0
  call void @_ZN10RelocationC2Ev(ptr noundef nonnull align 8 dereferenceable(20) %6)
  store ptr %6, ptr %3, align 8
  ret void
}

; Function Attrs: mustprogress nounwind uwtable
define linkonce_odr hidden void @_ZN16RelocationHolderC2I10RelocationJEEENS_9ConstructIT_EEDpRKT0_(ptr noundef nonnull align 8 dereferenceable(40) %0) unnamed_addr #1 comdat align 2 {
  %2 = alloca ptr, align 8
  store ptr %0, ptr %2, align 8
  %3 = load ptr, ptr %2, align 8
  call void @_ZN16RelocationHolder18emplace_relocationI10RelocationJEEEvDpRKT0_(ptr noundef nonnull align 8 dereferenceable(40) %3)
  ret void
}

; Function Attrs: mustprogress nounwind uwtable
define linkonce_odr hidden void @_ZN16RelocationHolderC2Ev(ptr noundef nonnull align 8 dereferenceable(40) %0) unnamed_addr #1 comdat align 2 {
  %2 = alloca ptr, align 8
  store ptr %0, ptr %2, align 8
  %3 = load ptr, ptr %2, align 8
  call void @_ZN16RelocationHolderC2I10RelocationJEEENS_9ConstructIT_EEDpRKT0_(ptr noundef nonnull align 8 dereferenceable(40) %3)
  ret void
}

; Function Attrs: mustprogress nounwind uwtable
define linkonce_odr hidden void @_ZN5Label4initEv(ptr noundef nonnull align 8 dereferenceable(33) %0) #1 comdat align 2 {
  %2 = alloca ptr, align 8
  store ptr %0, ptr %2, align 8
  %3 = load ptr, ptr %2, align 8
  %4 = getelementptr inbounds %class.Label, ptr %3, i32 0, i32 0
  store i32 -1, ptr %4, align 8
  %5 = getelementptr inbounds %class.Label, ptr %3, i32 0, i32 2
  store i32 0, ptr %5, align 4
  %6 = getelementptr inbounds %class.Label, ptr %3, i32 0, i32 3
  store ptr null, ptr %6, align 8
  %7 = getelementptr inbounds %class.Label, ptr %3, i32 0, i32 4
  store i8 0, ptr %7, align 8
  ret void
}

; Function Attrs: mustprogress nounwind uwtable
define linkonce_odr hidden void @_ZN5LabelD2Ev(ptr noundef nonnull align 8 dereferenceable(33) %0) unnamed_addr #1 comdat align 2 {
  %2 = alloca ptr, align 8
  store ptr %0, ptr %2, align 8
  ret void
}

; Function Attrs: mustprogress nounwind uwtable
define linkonce_odr hidden void @_ZN7AddressC2E8Registeri(ptr noundef nonnull align 8 dereferenceable(64) %0, i32 %1, i32 noundef %2) unnamed_addr #1 comdat align 2 {
  %4 = alloca %class.Register, align 4
  %5 = alloca ptr, align 8
  %6 = alloca i32, align 4
  %7 = getelementptr inbounds %class.Register, ptr %4, i32 0, i32 0
  store i32 %1, ptr %7, align 4
  store ptr %0, ptr %5, align 8
  store i32 %2, ptr %6, align 4
  %8 = load ptr, ptr %5, align 8
  %9 = getelementptr inbounds %class.Address, ptr %8, i32 0, i32 0
  call void @llvm.memcpy.p0.p0.i64(ptr align 8 %9, ptr align 4 %4, i64 4, i1 false)
  %10 = getelementptr inbounds %class.Address, ptr %8, i32 0, i32 1
  call void @llvm.memcpy.p0.p0.i64(ptr align 4 %10, ptr align 4 @_ZL5noreg, i64 4, i1 false)
  %11 = getelementptr inbounds %class.Address, ptr %8, i32 0, i32 2
  call void @llvm.memcpy.p0.p0.i64(ptr align 8 %11, ptr align 4 @_ZL6xnoreg, i64 4, i1 false)
  %12 = getelementptr inbounds %class.Address, ptr %8, i32 0, i32 3
  store i32 -1, ptr %12, align 4
  %13 = getelementptr inbounds %class.Address, ptr %8, i32 0, i32 4
  %14 = load i32, ptr %6, align 4
  store i32 %14, ptr %13, align 8
  %15 = getelementptr inbounds %class.Address, ptr %8, i32 0, i32 5
  store i8 0, ptr %15, align 4
  %16 = getelementptr inbounds %class.Address, ptr %8, i32 0, i32 7
  call void @_ZN16RelocationHolderC2Ev(ptr noundef nonnull align 8 dereferenceable(40) %16)
  ret void
}

; Function Attrs: mustprogress nounwind uwtable
define linkonce_odr hidden void @_ZN5LabelC2Ev(ptr noundef nonnull align 8 dereferenceable(33) %0) unnamed_addr #1 comdat align 2 {
  %2 = alloca ptr, align 8
  store ptr %0, ptr %2, align 8
  %3 = load ptr, ptr %2, align 8
  call void @_ZN5Label4initEv(ptr noundef nonnull align 8 dereferenceable(33) %3)
  ret void
}

; Function Attrs: mustprogress nounwind uwtable
define hidden void @_ZN13StubGenerator25generateHtbl_eight_blocksE8Register(ptr noundef nonnull align 8 dereferenceable(24) %0, i32 %1) #1 align 2 {
  %3 = alloca %class.Register, align 4
  %4 = alloca ptr, align 8
  %5 = alloca %class.XMMRegister, align 4
  %6 = alloca %class.XMMRegister, align 4
  %7 = alloca %class.Label, align 8
  %8 = alloca %class.XMMRegister, align 4
  %9 = alloca %class.Address, align 8
  %10 = alloca %class.Register, align 4
  %11 = alloca %class.XMMRegister, align 4
  %12 = alloca %class.XMMRegister, align 4
  %13 = alloca %class.Address, align 8
  %14 = alloca %class.Register, align 4
  %15 = alloca %class.XMMRegister, align 4
  %16 = alloca %class.Address, align 8
  %17 = alloca %class.Register, align 4
  %18 = alloca %class.XMMRegister, align 4
  %19 = alloca %class.Address, align 8
  %20 = alloca %class.Register, align 4
  %21 = alloca %class.XMMRegister, align 4
  %22 = alloca %class.Address, align 8
  %23 = alloca %class.Register, align 4
  %24 = alloca %class.XMMRegister, align 4
  %25 = alloca %class.Address, align 8
  %26 = alloca %class.Register, align 4
  %27 = alloca %class.XMMRegister, align 4
  %28 = alloca %class.Address, align 8
  %29 = alloca %class.Register, align 4
  %30 = alloca %class.XMMRegister, align 4
  %31 = alloca %class.Address, align 8
  %32 = alloca %class.Register, align 4
  %33 = alloca %class.XMMRegister, align 4
  %34 = alloca %class.XMMRegister, align 4
  %35 = alloca %class.XMMRegister, align 4
  %36 = getelementptr inbounds %class.Register, ptr %3, i32 0, i32 0
  store i32 %1, ptr %36, align 4
  store ptr %0, ptr %4, align 8
  %37 = load ptr, ptr %4, align 8
  call void @llvm.memcpy.p0.p0.i64(ptr align 4 %5, ptr align 4 @_ZL5xmm13, i64 4, i1 false)
  call void @llvm.memcpy.p0.p0.i64(ptr align 4 %6, ptr align 4 @_ZL4xmm1, i64 4, i1 false)
  call void @_ZN5LabelC2Ev(ptr noundef nonnull align 8 dereferenceable(33) %7)
  %38 = getelementptr inbounds %class.StubCodeGenerator, ptr %37, i32 0, i32 2
  %39 = load ptr, ptr %38, align 8
  call void @llvm.memcpy.p0.p0.i64(ptr align 4 %8, ptr align 4 %5, i64 4, i1 false)
  call void @llvm.memcpy.p0.p0.i64(ptr align 4 %10, ptr align 4 %3, i64 4, i1 false)
  %40 = getelementptr inbounds %class.Register, ptr %10, i32 0, i32 0
  %41 = load i32, ptr %40, align 4
  call void @_ZN7AddressC2E8Registeri(ptr noundef nonnull align 8 dereferenceable(64) %9, i32 %41, i32 noundef 16)
  %42 = getelementptr inbounds %class.XMMRegister, ptr %8, i32 0, i32 0
  %43 = load i32, ptr %42, align 4
  call void @_ZN14MacroAssembler6movdquE11XMMRegister7Address(ptr noundef nonnull align 8 dereferenceable(40) %39, i32 %43, ptr noundef %9)
  %44 = getelementptr inbounds %class.StubCodeGenerator, ptr %37, i32 0, i32 2
  %45 = load ptr, ptr %44, align 8
  call void @llvm.memcpy.p0.p0.i64(ptr align 4 %11, ptr align 4 %6, i64 4, i1 false)
  call void @llvm.memcpy.p0.p0.i64(ptr align 4 %12, ptr align 4 %5, i64 4, i1 false)
  %46 = getelementptr inbounds %class.XMMRegister, ptr %11, i32 0, i32 0
  %47 = load i32, ptr %46, align 4
  %48 = getelementptr inbounds %class.XMMRegister, ptr %12, i32 0, i32 0
  %49 = load i32, ptr %48, align 4
  call void @_ZN14MacroAssembler6movdquE11XMMRegisterS0_(ptr noundef nonnull align 8 dereferenceable(40) %45, i32 %47, i32 %49)
  %50 = getelementptr inbounds %class.StubCodeGenerator, ptr %37, i32 0, i32 2
  %51 = load ptr, ptr %50, align 8
  call void @_ZN14MacroAssembler4callER5LabelN9relocInfo9relocTypeE(ptr noundef nonnull align 8 dereferenceable(40) %51, ptr noundef nonnull align 8 dereferenceable(33) %7, i32 noundef 0)
  %52 = getelementptr inbounds %class.StubCodeGenerator, ptr %37, i32 0, i32 2
  %53 = load ptr, ptr %52, align 8
  call void @llvm.memcpy.p0.p0.i64(ptr align 4 %14, ptr align 4 %3, i64 4, i1 false)
  %54 = getelementptr inbounds %class.Register, ptr %14, i32 0, i32 0
  %55 = load i32, ptr %54, align 4
  call void @_ZN7AddressC2E8Registeri(ptr noundef nonnull align 8 dereferenceable(64) %13, i32 %55, i32 noundef 32)
  call void @llvm.memcpy.p0.p0.i64(ptr align 4 %15, ptr align 4 %5, i64 4, i1 false)
  %56 = getelementptr inbounds %class.XMMRegister, ptr %15, i32 0, i32 0
  %57 = load i32, ptr %56, align 4
  call void @_ZN14MacroAssembler6movdquE7Address11XMMRegister(ptr noundef nonnull align 8 dereferenceable(40) %53, ptr noundef %13, i32 %57)
  %58 = getelementptr inbounds %class.StubCodeGenerator, ptr %37, i32 0, i32 2
  %59 = load ptr, ptr %58, align 8
  call void @_ZN14MacroAssembler4callER5LabelN9relocInfo9relocTypeE(ptr noundef nonnull align 8 dereferenceable(40) %59, ptr noundef nonnull align 8 dereferenceable(33) %7, i32 noundef 0)
  %60 = getelementptr inbounds %class.StubCodeGenerator, ptr %37, i32 0, i32 2
  %61 = load ptr, ptr %60, align 8
  call void @llvm.memcpy.p0.p0.i64(ptr align 4 %17, ptr align 4 %3, i64 4, i1 false)
  %62 = getelementptr inbounds %class.Register, ptr %17, i32 0, i32 0
  %63 = load i32, ptr %62, align 4
  call void @_ZN7AddressC2E8Registeri(ptr noundef nonnull align 8 dereferenceable(64) %16, i32 %63, i32 noundef 48)
  call void @llvm.memcpy.p0.p0.i64(ptr align 4 %18, ptr align 4 %5, i64 4, i1 false)
  %64 = getelementptr inbounds %class.XMMRegister, ptr %18, i32 0, i32 0
  %65 = load i32, ptr %64, align 4
  call void @_ZN14MacroAssembler6movdquE7Address11XMMRegister(ptr noundef nonnull align 8 dereferenceable(40) %61, ptr noundef %16, i32 %65)
  %66 = getelementptr inbounds %class.StubCodeGenerator, ptr %37, i32 0, i32 2
  %67 = load ptr, ptr %66, align 8
  call void @_ZN14MacroAssembler4callER5LabelN9relocInfo9relocTypeE(ptr noundef nonnull align 8 dereferenceable(40) %67, ptr noundef nonnull align 8 dereferenceable(33) %7, i32 noundef 0)
  %68 = getelementptr inbounds %class.StubCodeGenerator, ptr %37, i32 0, i32 2
  %69 = load ptr, ptr %68, align 8
  call void @llvm.memcpy.p0.p0.i64(ptr align 4 %20, ptr align 4 %3, i64 4, i1 false)
  %70 = getelementptr inbounds %class.Register, ptr %20, i32 0, i32 0
  %71 = load i32, ptr %70, align 4
  call void @_ZN7AddressC2E8Registeri(ptr noundef nonnull align 8 dereferenceable(64) %19, i32 %71, i32 noundef 64)
  call void @llvm.memcpy.p0.p0.i64(ptr align 4 %21, ptr align 4 %5, i64 4, i1 false)
  %72 = getelementptr inbounds %class.XMMRegister, ptr %21, i32 0, i32 0
  %73 = load i32, ptr %72, align 4
  call void @_ZN14MacroAssembler6movdquE7Address11XMMRegister(ptr noundef nonnull align 8 dereferenceable(40) %69, ptr noundef %19, i32 %73)
  %74 = getelementptr inbounds %class.StubCodeGenerator, ptr %37, i32 0, i32 2
  %75 = load ptr, ptr %74, align 8
  call void @_ZN14MacroAssembler4callER5LabelN9relocInfo9relocTypeE(ptr noundef nonnull align 8 dereferenceable(40) %75, ptr noundef nonnull align 8 dereferenceable(33) %7, i32 noundef 0)
  %76 = getelementptr inbounds %class.StubCodeGenerator, ptr %37, i32 0, i32 2
  %77 = load ptr, ptr %76, align 8
  call void @llvm.memcpy.p0.p0.i64(ptr align 4 %23, ptr align 4 %3, i64 4, i1 false)
  %78 = getelementptr inbounds %class.Register, ptr %23, i32 0, i32 0
  %79 = load i32, ptr %78, align 4
  call void @_ZN7AddressC2E8Registeri(ptr noundef nonnull align 8 dereferenceable(64) %22, i32 %79, i32 noundef 80)
  call void @llvm.memcpy.p0.p0.i64(ptr align 4 %24, ptr align 4 %5, i64 4, i1 false)
  %80 = getelementptr inbounds %class.XMMRegister, ptr %24, i32 0, i32 0
  %81 = load i32, ptr %80, align 4
  call void @_ZN14MacroAssembler6movdquE7Address11XMMRegister(ptr noundef nonnull align 8 dereferenceable(40) %77, ptr noundef %22, i32 %81)
  %82 = getelementptr inbounds %class.StubCodeGenerator, ptr %37, i32 0, i32 2
  %83 = load ptr, ptr %82, align 8
  call void @_ZN14MacroAssembler4callER5LabelN9relocInfo9relocTypeE(ptr noundef nonnull align 8 dereferenceable(40) %83, ptr noundef nonnull align 8 dereferenceable(33) %7, i32 noundef 0)
  %84 = getelementptr inbounds %class.StubCodeGenerator, ptr %37, i32 0, i32 2
  %85 = load ptr, ptr %84, align 8
  call void @llvm.memcpy.p0.p0.i64(ptr align 4 %26, ptr align 4 %3, i64 4, i1 false)
  %86 = getelementptr inbounds %class.Register, ptr %26, i32 0, i32 0
  %87 = load i32, ptr %86, align 4
  call void @_ZN7AddressC2E8Registeri(ptr noundef nonnull align 8 dereferenceable(64) %25, i32 %87, i32 noundef 96)
  call void @llvm.memcpy.p0.p0.i64(ptr align 4 %27, ptr align 4 %5, i64 4, i1 false)
  %88 = getelementptr inbounds %class.XMMRegister, ptr %27, i32 0, i32 0
  %89 = load i32, ptr %88, align 4
  call void @_ZN14MacroAssembler6movdquE7Address11XMMRegister(ptr noundef nonnull align 8 dereferenceable(40) %85, ptr noundef %25, i32 %89)
  %90 = getelementptr inbounds %class.StubCodeGenerator, ptr %37, i32 0, i32 2
  %91 = load ptr, ptr %90, align 8
  call void @_ZN14MacroAssembler4callER5LabelN9relocInfo9relocTypeE(ptr noundef nonnull align 8 dereferenceable(40) %91, ptr noundef nonnull align 8 dereferenceable(33) %7, i32 noundef 0)
  %92 = getelementptr inbounds %class.StubCodeGenerator, ptr %37, i32 0, i32 2
  %93 = load ptr, ptr %92, align 8
  call void @llvm.memcpy.p0.p0.i64(ptr align 4 %29, ptr align 4 %3, i64 4, i1 false)
  %94 = getelementptr inbounds %class.Register, ptr %29, i32 0, i32 0
  %95 = load i32, ptr %94, align 4
  call void @_ZN7AddressC2E8Registeri(ptr noundef nonnull align 8 dereferenceable(64) %28, i32 %95, i32 noundef 112)
  call void @llvm.memcpy.p0.p0.i64(ptr align 4 %30, ptr align 4 %5, i64 4, i1 false)
  %96 = getelementptr inbounds %class.XMMRegister, ptr %30, i32 0, i32 0
  %97 = load i32, ptr %96, align 4
  call void @_ZN14MacroAssembler6movdquE7Address11XMMRegister(ptr noundef nonnull align 8 dereferenceable(40) %93, ptr noundef %28, i32 %97)
  %98 = getelementptr inbounds %class.StubCodeGenerator, ptr %37, i32 0, i32 2
  %99 = load ptr, ptr %98, align 8
  call void @_ZN14MacroAssembler4callER5LabelN9relocInfo9relocTypeE(ptr noundef nonnull align 8 dereferenceable(40) %99, ptr noundef nonnull align 8 dereferenceable(33) %7, i32 noundef 0)
  %100 = getelementptr inbounds %class.StubCodeGenerator, ptr %37, i32 0, i32 2
  %101 = load ptr, ptr %100, align 8
  call void @llvm.memcpy.p0.p0.i64(ptr align 4 %32, ptr align 4 %3, i64 4, i1 false)
  %102 = getelementptr inbounds %class.Register, ptr %32, i32 0, i32 0
  %103 = load i32, ptr %102, align 4
  call void @_ZN7AddressC2E8Registeri(ptr noundef nonnull align 8 dereferenceable(64) %31, i32 %103, i32 noundef 128)
  call void @llvm.memcpy.p0.p0.i64(ptr align 4 %33, ptr align 4 %5, i64 4, i1 false)
  %104 = getelementptr inbounds %class.XMMRegister, ptr %33, i32 0, i32 0
  %105 = load i32, ptr %104, align 4
  call void @_ZN14MacroAssembler6movdquE7Address11XMMRegister(ptr noundef nonnull align 8 dereferenceable(40) %101, ptr noundef %31, i32 %105)
  %106 = getelementptr inbounds %class.StubCodeGenerator, ptr %37, i32 0, i32 2
  %107 = load ptr, ptr %106, align 8
  call void @_ZN9Assembler3retEi(ptr noundef nonnull align 8 dereferenceable(40) %107, i32 noundef 0)
  %108 = getelementptr inbounds %class.StubCodeGenerator, ptr %37, i32 0, i32 2
  %109 = load ptr, ptr %108, align 8
  call void @_ZN17AbstractAssembler4bindER5Label(ptr noundef nonnull align 8 dereferenceable(24) %109, ptr noundef nonnull align 8 dereferenceable(33) %7)
  call void @llvm.memcpy.p0.p0.i64(ptr align 4 %34, ptr align 4 %6, i64 4, i1 false)
  call void @llvm.memcpy.p0.p0.i64(ptr align 4 %35, ptr align 4 %5, i64 4, i1 false)
  %110 = getelementptr inbounds %class.XMMRegister, ptr %34, i32 0, i32 0
  %111 = load i32, ptr %110, align 4
  %112 = getelementptr inbounds %class.XMMRegister, ptr %35, i32 0, i32 0
  %113 = load i32, ptr %112, align 4
  call void @_ZN13StubGenerator5gfmulE11XMMRegisterS0_(ptr noundef nonnull align 8 dereferenceable(24) %37, i32 %111, i32 %113)
  call void @_ZN5LabelD2Ev(ptr noundef nonnull align 8 dereferenceable(33) %7) #5
  ret void
}