; Function Attrs: mustprogress nounwind uwtable
define hidden void @_ZN13StubGenerator25generateHtbl_eight_blocksE8Register(ptr nocapture noundef nonnull readonly align 8 dereferenceable(24) %0, i32 %1) local_unnamed_addr #1 align 2 {
  %3 = alloca %class.Label, align 8
  %4 = alloca %class.Address, align 8
  %5 = alloca %class.Address, align 8
  %6 = alloca %class.Address, align 8
  %7 = alloca %class.Address, align 8
  %8 = alloca %class.Address, align 8
  %9 = alloca %class.Address, align 8
  %10 = alloca %class.Address, align 8
  %11 = alloca %class.Address, align 8
  store i32 -1, ptr %3, align 8
  %12 = getelementptr inbounds i8, ptr %3, i64 20
  store i32 0, ptr %12, align 4
  %13 = getelementptr inbounds i8, ptr %3, i64 24
  store ptr null, ptr %13, align 8
  %14 = getelementptr inbounds i8, ptr %3, i64 32
  store i8 0, ptr %14, align 8
  %15 = getelementptr inbounds i8, ptr %0, i64 16
  %16 = load ptr, ptr %15, align 8
  store i32 %1, ptr %4, align 8
  %17 = getelementptr inbounds i8, ptr %4, i64 4
  store <4 x i32> <i32 -1, i32 -1, i32 -1, i32 16>, ptr %17, align 4
  %18 = getelementptr inbounds i8, ptr %4, i64 20
  store i8 0, ptr %18, align 4
  %19 = getelementptr inbounds i8, ptr %4, i64 24
  store ptr getelementptr inbounds inrange(-16, 72) (i8, ptr @_ZTV10Relocation, i64 16), ptr %19, align 8
  %20 = getelementptr inbounds i8, ptr %4, i64 32
  store ptr null, ptr %20, align 8
  %21 = getelementptr inbounds i8, ptr %4, i64 40
  store i32 0, ptr %21, align 8
  call void @_ZN14MacroAssembler6movdquE11XMMRegister7Address(ptr noundef nonnull align 8 dereferenceable(40) %16, i32 13, ptr noundef nonnull %4) #6
  %22 = load ptr, ptr %15, align 8
  call void @_ZN14MacroAssembler6movdquE11XMMRegisterS0_(ptr noundef nonnull align 8 dereferenceable(40) %22, i32 1, i32 13) #6
  %23 = load ptr, ptr %15, align 8
  call void @_ZN14MacroAssembler4callER5LabelN9relocInfo9relocTypeE(ptr noundef nonnull align 8 dereferenceable(40) %23, ptr noundef nonnull align 8 dereferenceable(33) %3, i32 noundef 0) #6
  %24 = load ptr, ptr %15, align 8
  store i32 %1, ptr %5, align 8
  %25 = getelementptr inbounds i8, ptr %5, i64 4
  store <4 x i32> <i32 -1, i32 -1, i32 -1, i32 32>, ptr %25, align 4
  %26 = getelementptr inbounds i8, ptr %5, i64 20
  store i8 0, ptr %26, align 4
  %27 = getelementptr inbounds i8, ptr %5, i64 24
  store ptr getelementptr inbounds inrange(-16, 72) (i8, ptr @_ZTV10Relocation, i64 16), ptr %27, align 8
  %28 = getelementptr inbounds i8, ptr %5, i64 32
  store ptr null, ptr %28, align 8
  %29 = getelementptr inbounds i8, ptr %5, i64 40
  store i32 0, ptr %29, align 8
  call void @_ZN14MacroAssembler6movdquE7Address11XMMRegister(ptr noundef nonnull align 8 dereferenceable(40) %24, ptr noundef nonnull %5, i32 13) #6
  %30 = load ptr, ptr %15, align 8
  call void @_ZN14MacroAssembler4callER5LabelN9relocInfo9relocTypeE(ptr noundef nonnull align 8 dereferenceable(40) %30, ptr noundef nonnull align 8 dereferenceable(33) %3, i32 noundef 0) #6
  %31 = load ptr, ptr %15, align 8
  store i32 %1, ptr %6, align 8
  %32 = getelementptr inbounds i8, ptr %6, i64 4
  store <4 x i32> <i32 -1, i32 -1, i32 -1, i32 48>, ptr %32, align 4
  %33 = getelementptr inbounds i8, ptr %6, i64 20
  store i8 0, ptr %33, align 4
  %34 = getelementptr inbounds i8, ptr %6, i64 24
  store ptr getelementptr inbounds inrange(-16, 72) (i8, ptr @_ZTV10Relocation, i64 16), ptr %34, align 8
  %35 = getelementptr inbounds i8, ptr %6, i64 32
  store ptr null, ptr %35, align 8
  %36 = getelementptr inbounds i8, ptr %6, i64 40
  store i32 0, ptr %36, align 8
  call void @_ZN14MacroAssembler6movdquE7Address11XMMRegister(ptr noundef nonnull align 8 dereferenceable(40) %31, ptr noundef nonnull %6, i32 13) #6
  %37 = load ptr, ptr %15, align 8
  call void @_ZN14MacroAssembler4callER5LabelN9relocInfo9relocTypeE(ptr noundef nonnull align 8 dereferenceable(40) %37, ptr noundef nonnull align 8 dereferenceable(33) %3, i32 noundef 0) #6
  %38 = load ptr, ptr %15, align 8
  store i32 %1, ptr %7, align 8
  %39 = getelementptr inbounds i8, ptr %7, i64 4
  store <4 x i32> <i32 -1, i32 -1, i32 -1, i32 64>, ptr %39, align 4
  %40 = getelementptr inbounds i8, ptr %7, i64 20
  store i8 0, ptr %40, align 4
  %41 = getelementptr inbounds i8, ptr %7, i64 24
  store ptr getelementptr inbounds inrange(-16, 72) (i8, ptr @_ZTV10Relocation, i64 16), ptr %41, align 8
  %42 = getelementptr inbounds i8, ptr %7, i64 32
  store ptr null, ptr %42, align 8
  %43 = getelementptr inbounds i8, ptr %7, i64 40
  store i32 0, ptr %43, align 8
  call void @_ZN14MacroAssembler6movdquE7Address11XMMRegister(ptr noundef nonnull align 8 dereferenceable(40) %38, ptr noundef nonnull %7, i32 13) #6
  %44 = load ptr, ptr %15, align 8
  call void @_ZN14MacroAssembler4callER5LabelN9relocInfo9relocTypeE(ptr noundef nonnull align 8 dereferenceable(40) %44, ptr noundef nonnull align 8 dereferenceable(33) %3, i32 noundef 0) #6
  %45 = load ptr, ptr %15, align 8
  store i32 %1, ptr %8, align 8
  %46 = getelementptr inbounds i8, ptr %8, i64 4
  store <4 x i32> <i32 -1, i32 -1, i32 -1, i32 80>, ptr %46, align 4
  %47 = getelementptr inbounds i8, ptr %8, i64 20
  store i8 0, ptr %47, align 4
  %48 = getelementptr inbounds i8, ptr %8, i64 24
  store ptr getelementptr inbounds inrange(-16, 72) (i8, ptr @_ZTV10Relocation, i64 16), ptr %48, align 8
  %49 = getelementptr inbounds i8, ptr %8, i64 32
  store ptr null, ptr %49, align 8
  %50 = getelementptr inbounds i8, ptr %8, i64 40
  store i32 0, ptr %50, align 8
  call void @_ZN14MacroAssembler6movdquE7Address11XMMRegister(ptr noundef nonnull align 8 dereferenceable(40) %45, ptr noundef nonnull %8, i32 13) #6
  %51 = load ptr, ptr %15, align 8
  call void @_ZN14MacroAssembler4callER5LabelN9relocInfo9relocTypeE(ptr noundef nonnull align 8 dereferenceable(40) %51, ptr noundef nonnull align 8 dereferenceable(33) %3, i32 noundef 0) #6
  %52 = load ptr, ptr %15, align 8
  store i32 %1, ptr %9, align 8
  %53 = getelementptr inbounds i8, ptr %9, i64 4
  store <4 x i32> <i32 -1, i32 -1, i32 -1, i32 96>, ptr %53, align 4
  %54 = getelementptr inbounds i8, ptr %9, i64 20
  store i8 0, ptr %54, align 4
  %55 = getelementptr inbounds i8, ptr %9, i64 24
  store ptr getelementptr inbounds inrange(-16, 72) (i8, ptr @_ZTV10Relocation, i64 16), ptr %55, align 8
  %56 = getelementptr inbounds i8, ptr %9, i64 32
  store ptr null, ptr %56, align 8
  %57 = getelementptr inbounds i8, ptr %9, i64 40
  store i32 0, ptr %57, align 8
  call void @_ZN14MacroAssembler6movdquE7Address11XMMRegister(ptr noundef nonnull align 8 dereferenceable(40) %52, ptr noundef nonnull %9, i32 13) #6
  %58 = load ptr, ptr %15, align 8
  call void @_ZN14MacroAssembler4callER5LabelN9relocInfo9relocTypeE(ptr noundef nonnull align 8 dereferenceable(40) %58, ptr noundef nonnull align 8 dereferenceable(33) %3, i32 noundef 0) #6
  %59 = load ptr, ptr %15, align 8
  store i32 %1, ptr %10, align 8
  %60 = getelementptr inbounds i8, ptr %10, i64 4
  store <4 x i32> <i32 -1, i32 -1, i32 -1, i32 112>, ptr %60, align 4
  %61 = getelementptr inbounds i8, ptr %10, i64 20
  store i8 0, ptr %61, align 4
  %62 = getelementptr inbounds i8, ptr %10, i64 24
  store ptr getelementptr inbounds inrange(-16, 72) (i8, ptr @_ZTV10Relocation, i64 16), ptr %62, align 8
  %63 = getelementptr inbounds i8, ptr %10, i64 32
  store ptr null, ptr %63, align 8
  %64 = getelementptr inbounds i8, ptr %10, i64 40
  store i32 0, ptr %64, align 8
  call void @_ZN14MacroAssembler6movdquE7Address11XMMRegister(ptr noundef nonnull align 8 dereferenceable(40) %59, ptr noundef nonnull %10, i32 13) #6
  %65 = load ptr, ptr %15, align 8
  call void @_ZN14MacroAssembler4callER5LabelN9relocInfo9relocTypeE(ptr noundef nonnull align 8 dereferenceable(40) %65, ptr noundef nonnull align 8 dereferenceable(33) %3, i32 noundef 0) #6
  %66 = load ptr, ptr %15, align 8
  store i32 %1, ptr %11, align 8
  %67 = getelementptr inbounds i8, ptr %11, i64 4
  store <4 x i32> <i32 -1, i32 -1, i32 -1, i32 128>, ptr %67, align 4
  %68 = getelementptr inbounds i8, ptr %11, i64 20
  store i8 0, ptr %68, align 4
  %69 = getelementptr inbounds i8, ptr %11, i64 24
  store ptr getelementptr inbounds inrange(-16, 72) (i8, ptr @_ZTV10Relocation, i64 16), ptr %69, align 8
  %70 = getelementptr inbounds i8, ptr %11, i64 32
  store ptr null, ptr %70, align 8
  %71 = getelementptr inbounds i8, ptr %11, i64 40
  store i32 0, ptr %71, align 8
  call void @_ZN14MacroAssembler6movdquE7Address11XMMRegister(ptr noundef nonnull align 8 dereferenceable(40) %66, ptr noundef nonnull %11, i32 13) #6
  %72 = load ptr, ptr %15, align 8
  call void @_ZN9Assembler3retEi(ptr noundef nonnull align 8 dereferenceable(40) %72, i32 noundef 0) #6
  %73 = load ptr, ptr %15, align 8
  call void @_ZN17AbstractAssembler4bindER5Label(ptr noundef nonnull align 8 dereferenceable(24) %73, ptr noundef nonnull align 8 dereferenceable(33) %3) #6
  call void @_ZN13StubGenerator5gfmulE11XMMRegisterS0_(ptr noundef nonnull align 8 dereferenceable(24) %0, i32 1, i32 13)
  ret void
}